; Function Attrs: mustprogress uwtable
define dso_local void @_ZN30btKinematicCharacterController10setGravityERK9btVector3(ptr noundef nonnull align 8 dereferenceable(319) %this, ptr nocapture noundef nonnull readonly align 4 dereferenceable(16) %gravity) local_unnamed_addr #1 align 2 {
entry:
  %ref.tmp = alloca %class.btVector3, align 8
  %0 = load <2 x float>, ptr %gravity, align 4
  %1 = fmul <2 x float> %0, %0
  %mul8.i.i = extractelement <2 x float> %1, i64 1
  %2 = extractelement <2 x float> %0, i64 0
  %3 = tail call float @llvm.fmuladd.f32(float %2, float %2, float %mul8.i.i)
  %arrayidx10.i.i = getelementptr inbounds i8, ptr %gravity, i64 8
  %4 = load float, ptr %arrayidx10.i.i, align 4
  %5 = tail call noundef float @llvm.fmuladd.f32(float %4, float %4, float %3)
  %cmp = fcmp ogt float %5, 0.000000e+00
  br i1 %cmp, label %if.then, label %if.end

if.then:                                          ; preds = %entry
  %arrayidx5.i.i = getelementptr inbounds i8, ptr %gravity, i64 4
  %6 = fneg <2 x float> %0
  %fneg8.i = fneg float %4
  %retval.sroa.3.12.vec.insert.i = insertelement <2 x float> <float poison, float 0.000000e+00>, float %fneg8.i, i64 0
  store <2 x float> %6, ptr %ref.tmp, align 8
  %7 = getelementptr inbounds i8, ptr %ref.tmp, i64 8
  store <2 x float> %retval.sroa.3.12.vec.insert.i, ptr %7, align 8
  call void @_ZN30btKinematicCharacterController11setUpVectorERK9btVector3(ptr noundef nonnull align 8 dereferenceable(319) %this, ptr noundef nonnull align 4 dereferenceable(16) %ref.tmp)
  %.pre = load float, ptr %gravity, align 4
  %.pre3 = load float, ptr %arrayidx5.i.i, align 4
  %.pre4 = load float, ptr %arrayidx10.i.i, align 4
  %.pre5 = fmul float %.pre3, %.pre3
  %.pre6 = tail call float @llvm.fmuladd.f32(float %.pre, float %.pre, float %.pre5)
  %.pre7 = tail call noundef float @llvm.fmuladd.f32(float %.pre4, float %.pre4, float %.pre6)
  br label %if.end

if.end:                                           ; preds = %if.then, %entry
  %.pre-phi8 = phi float [ %.pre7, %if.then ], [ %5, %entry ]
  %sqrt.i = tail call noundef float @llvm.sqrt.f32(float %.pre-phi8)
  %m_gravity = getelementptr inbounds i8, ptr %this, i64 68
  store float %sqrt.i, ptr %m_gravity, align 4
  ret void
}